; ModuleID = '3/753.c'
source_filename = "3/753.c"
target datalayout = "e-m:e-p270:32:32-p271:32:32-p272:64:64-i64:64-f80:128-n8:16:32:64-S128"
target triple = "x86_64-pc-linux-gnu"

@.str = private unnamed_addr constant [5 x i8] c"%d%d\00", align 1
@.str.1 = private unnamed_addr constant [3 x i8] c"%d\00", align 1
@.str.2 = private unnamed_addr constant [4 x i8] c"yes\00", align 1
@.str.3 = private unnamed_addr constant [3 x i8] c"no\00", align 1

; Function Attrs: noinline nounwind uwtable
define dso_local i32 @main() #0 {
  %1 = alloca i32, align 4
  %2 = alloca i32, align 4
  %3 = alloca i32, align 4
  %4 = alloca i32, align 4
  %5 = alloca i32, align 4
  %6 = alloca i32, align 4
  %7 = alloca [1000 x i32], align 16
  store i32 0, i32* %1, align 4
  %8 = call i32 (i8*, ...) @__isoc99_scanf(i8* getelementptr inbounds ([5 x i8], [5 x i8]* @.str, i64 0, i64 0), i32* %3, i32* %2)
  store i32 0, i32* %4, align 4
  br label %9

9:                                                ; preds = %18, %0
  %10 = load i32, i32* %4, align 4
  %11 = load i32, i32* %3, align 4
  %12 = icmp slt i32 %10, %11
  br i1 %12, label %13, label %21

13:                                               ; preds = %9
  %14 = load i32, i32* %4, align 4
  %15 = sext i32 %14 to i64
  %16 = getelementptr inbounds [1000 x i32], [1000 x i32]* %7, i64 0, i64 %15
  %17 = call i32 (i8*, ...) @__isoc99_scanf(i8* getelementptr inbounds ([3 x i8], [3 x i8]* @.str.1, i64 0, i64 0), i32* %16)
  br label %18

18:                                               ; preds = %13
  %19 = load i32, i32* %4, align 4
  %20 = add nsw i32 %19, 1
  store i32 %20, i32* %4, align 4
  br label %9

21:                                               ; preds = %9
  store i32 0, i32* %4, align 4
  store i32 1, i32* %6, align 4
  br label %22

22:                                               ; preds = %51, %21
  %23 = load i32, i32* %4, align 4
  %24 = load i32, i32* %3, align 4
  %25 = icmp slt i32 %23, %24
  br i1 %25, label %26, label %54

26:                                               ; preds = %22
  %27 = load i32, i32* %4, align 4
  %28 = add nsw i32 %27, 1
  store i32 %28, i32* %5, align 4
  br label %29

29:                                               ; preds = %47, %26
  %30 = load i32, i32* %5, align 4
  %31 = load i32, i32* %3, align 4
  %32 = icmp slt i32 %30, %31
  br i1 %32, label %33, label %50

33:                                               ; preds = %29
  %34 = load i32, i32* %4, align 4
  %35 = sext i32 %34 to i64
  %36 = getelementptr inbounds [1000 x i32], [1000 x i32]* %7, i64 0, i64 %35
  %37 = load i32, i32* %36, align 4
  %38 = load i32, i32* %5, align 4
  %39 = sext i32 %38 to i64
  %40 = getelementptr inbounds [1000 x i32], [1000 x i32]* %7, i64 0, i64 %39
  %41 = load i32, i32* %40, align 4
  %42 = add nsw i32 %37, %41
  %43 = load i32, i32* %2, align 4
  %44 = icmp eq i32 %42, %43
  br i1 %44, label %45, label %46

45:                                               ; preds = %33
  store i32 0, i32* %6, align 4
  br label %50

46:                                               ; preds = %33
  br label %47

47:                                               ; preds = %46
  %48 = load i32, i32* %5, align 4
  %49 = add nsw i32 %48, 1
  store i32 %49, i32* %5, align 4
  br label %29

50:                                               ; preds = %45, %29
  br label %51

51:                                               ; preds = %50
  %52 = load i32, i32* %4, align 4
  %53 = add nsw i32 %52, 1
  store i32 %53, i32* %4, align 4
  br label %22

54:                                               ; preds = %22
  %55 = load i32, i32* %6, align 4
  %56 = icmp eq i32 %55, 0
  br i1 %56, label %57, label %59

57:                                               ; preds = %54
  %58 = call i32 (i8*, ...) @printf(i8* getelementptr inbounds ([4 x i8], [4 x i8]* @.str.2, i64 0, i64 0))
  br label %61

59:                                               ; preds = %54
  %60 = call i32 (i8*, ...) @printf(i8* getelementptr inbounds ([3 x i8], [3 x i8]* @.str.3, i64 0, i64 0))
  br label %61

61:                                               ; preds = %59, %57
  ret i32 0
}

declare dso_local i32 @__isoc99_scanf(i8*, ...) #1

declare dso_local i32 @printf(i8*, ...) #1


!llvm.module.flags = !{!0}
!llvm.ident = !{!1}

!0 = !{i32 1, !"wchar_size", i32 4}
!1 = !{!"clang version 10.0.0-4ubuntu1 "}
